; Function Attrs: mustprogress uwtable
define hidden void @_ZN2cv3hal12cpu_baseline5mul8uEPKhmS3_mPhmiiPKd(ptr nocapture noundef readonly %0, i64 noundef %1, ptr nocapture noundef readonly %2, i64 noundef %3, ptr nocapture noundef writeonly %4, i64 noundef %5, i32 noundef %6, i32 noundef %7, ptr nocapture noundef readonly %8) local_unnamed_addr #3 personality ptr @__gxx_personality_v0 {
  %10 = alloca %"class.cv::utils::trace::details::Region", align 8
  call void @_ZN2cv5utils5trace7details6RegionC1ERKNS3_21LocationStaticStorageE(ptr noundef nonnull align 8 dereferenceable(12) %10, ptr noundef nonnull align 8 dereferenceable(32) @_ZZN2cv3hal12cpu_baseline5mul8uEPKhmS3_mPhmiiPKdE26__cv_trace_location_fn1559)
  %.val = load double, ptr %8, align 8
  %11 = fptrunc double %.val to float
  %12 = fadd float %11, -1.000000e+00
  %13 = call noundef float @llvm.fabs.f32(float %12)
  %14 = fcmp ugt float %13, 0x3E80000000000000
  %.not24.i.i = icmp ne i32 %7, 0
  %15 = icmp sgt i32 %6, 0
  %or.cond.i16.i = and i1 %15, %.not24.i.i
  br i1 %14, label %32, label %16

16:                                               ; preds = %9
  br i1 %or.cond.i16.i, label %.preheader.us.preheader.i.i, label %_ZN2cv3hal12cpu_baselineL8mul_loopIhNS_12hal_baseline5v_regIhLi16EEEEEvPKT_mS8_mPS6_miiPKd.exit

.preheader.us.preheader.i.i:                      ; preds = %16
  %wide.trip.count.i.i = zext nneg i32 %6 to i64
  br label %.preheader.us.i.i

.preheader.us.i.i:                                ; preds = %._crit_edge.us.i.i, %.preheader.us.preheader.i.i
  %.in.i.i = phi i32 [ %28, %._crit_edge.us.i.i ], [ %7, %.preheader.us.preheader.i.i ]
  %.01926.us.i.i = phi ptr [ %29, %._crit_edge.us.i.i ], [ %0, %.preheader.us.preheader.i.i ]
  %.02025.us.i.i = phi ptr [ %31, %._crit_edge.us.i.i ], [ %4, %.preheader.us.preheader.i.i ]
  %.02124.us.i.i = phi ptr [ %30, %._crit_edge.us.i.i ], [ %2, %.preheader.us.preheader.i.i ]
  br label %17

17:                                               ; preds = %17, %.preheader.us.i.i
  %indvars.iv.i.i = phi i64 [ 0, %.preheader.us.i.i ], [ %indvars.iv.next.i.i, %17 ]
  %18 = getelementptr inbounds i8, ptr %.01926.us.i.i, i64 %indvars.iv.i.i
  %19 = load i8, ptr %18, align 1
  %20 = getelementptr inbounds i8, ptr %.02124.us.i.i, i64 %indvars.iv.i.i
  %21 = load i8, ptr %20, align 1
  %22 = zext i8 %19 to i32
  %23 = zext i8 %21 to i32
  %24 = mul nuw nsw i32 %23, %22
  %25 = call i32 @llvm.umin.i32(i32 %24, i32 255)
  %26 = trunc nuw i32 %25 to i8
  %27 = getelementptr inbounds i8, ptr %.02025.us.i.i, i64 %indvars.iv.i.i
  store i8 %26, ptr %27, align 1
  %indvars.iv.next.i.i = add nuw nsw i64 %indvars.iv.i.i, 1
  %exitcond.not.i.i = icmp eq i64 %indvars.iv.next.i.i, %wide.trip.count.i.i
  br i1 %exitcond.not.i.i, label %._crit_edge.us.i.i, label %17, !llvm.loop !148

._crit_edge.us.i.i:                               ; preds = %17
  %28 = add nsw i32 %.in.i.i, -1
  %29 = getelementptr inbounds i8, ptr %.01926.us.i.i, i64 %1
  %30 = getelementptr inbounds i8, ptr %.02124.us.i.i, i64 %3
  %31 = getelementptr inbounds i8, ptr %.02025.us.i.i, i64 %5
  %.not.us.i.i = icmp eq i32 %28, 0
  br i1 %.not.us.i.i, label %_ZN2cv3hal12cpu_baselineL8mul_loopIhNS_12hal_baseline5v_regIhLi16EEEEEvPKT_mS8_mPS6_miiPKd.exit, label %.preheader.us.i.i, !llvm.loop !149

32:                                               ; preds = %9
  br i1 %or.cond.i16.i, label %.preheader.us.preheader.i17.i, label %_ZN2cv3hal12cpu_baselineL8mul_loopIhNS_12hal_baseline5v_regIhLi16EEEEEvPKT_mS8_mPS6_miiPKd.exit

.preheader.us.preheader.i17.i:                    ; preds = %32
  %wide.trip.count.i18.i = zext nneg i32 %6 to i64
  br label %.preheader.us.i19.i

.preheader.us.i19.i:                              ; preds = %._crit_edge.us.i24.i, %.preheader.us.preheader.i17.i
  %.in.i20.i = phi i32 [ %54, %._crit_edge.us.i24.i ], [ %7, %.preheader.us.preheader.i17.i ]
  %.01927.us.i.i = phi ptr [ %55, %._crit_edge.us.i24.i ], [ %0, %.preheader.us.preheader.i17.i ]
  %.02126.us.i.i = phi ptr [ %57, %._crit_edge.us.i24.i ], [ %4, %.preheader.us.preheader.i17.i ]
  %.02225.us.i.i = phi ptr [ %56, %._crit_edge.us.i24.i ], [ %2, %.preheader.us.preheader.i17.i ]
  br label %33

33:                                               ; preds = %33, %.preheader.us.i19.i
  %indvars.iv.i21.i = phi i64 [ 0, %.preheader.us.i19.i ], [ %indvars.iv.next.i22.i, %33 ]
  %34 = getelementptr inbounds i8, ptr %.01927.us.i.i, i64 %indvars.iv.i21.i
  %35 = load i8, ptr %34, align 1
  %36 = getelementptr inbounds i8, ptr %.02225.us.i.i, i64 %indvars.iv.i21.i
  %37 = load i8, ptr %36, align 1
  %38 = zext i8 %35 to i64
  %39 = add nuw nsw i64 %38, 128
  %40 = getelementptr inbounds [0 x float], ptr @_ZN2cv10g_8x32fTabE, i64 0, i64 %39
  %41 = load float, ptr %40, align 4
  %42 = fmul float %41, %11
  %43 = zext i8 %37 to i64
  %44 = add nuw nsw i64 %43, 128
  %45 = getelementptr inbounds [0 x float], ptr @_ZN2cv10g_8x32fTabE, i64 0, i64 %44
  %46 = load float, ptr %45, align 4
  %47 = fmul float %42, %46
  %48 = insertelement <4 x float> poison, float %47, i64 0
  %49 = call noundef i32 @llvm.x86.sse.cvtss2si(<4 x float> %48)
  %50 = call i32 @llvm.smax.i32(i32 %49, i32 0)
  %51 = call i32 @llvm.umin.i32(i32 %50, i32 255)
  %52 = trunc nuw i32 %51 to i8
  %53 = getelementptr inbounds i8, ptr %.02126.us.i.i, i64 %indvars.iv.i21.i
  store i8 %52, ptr %53, align 1
  %indvars.iv.next.i22.i = add nuw nsw i64 %indvars.iv.i21.i, 1
  %exitcond.not.i23.i = icmp eq i64 %indvars.iv.next.i22.i, %wide.trip.count.i18.i
  br i1 %exitcond.not.i23.i, label %._crit_edge.us.i24.i, label %33, !llvm.loop !150

._crit_edge.us.i24.i:                             ; preds = %33
  %54 = add nsw i32 %.in.i20.i, -1
  %55 = getelementptr inbounds i8, ptr %.01927.us.i.i, i64 %1
  %56 = getelementptr inbounds i8, ptr %.02225.us.i.i, i64 %3
  %57 = getelementptr inbounds i8, ptr %.02126.us.i.i, i64 %5
  %.not.us.i25.i = icmp eq i32 %54, 0
  br i1 %.not.us.i25.i, label %_ZN2cv3hal12cpu_baselineL8mul_loopIhNS_12hal_baseline5v_regIhLi16EEEEEvPKT_mS8_mPS6_miiPKd.exit, label %.preheader.us.i19.i, !llvm.loop !151

_ZN2cv3hal12cpu_baselineL8mul_loopIhNS_12hal_baseline5v_regIhLi16EEEEEvPKT_mS8_mPS6_miiPKd.exit: ; preds = %._crit_edge.us.i.i, %._crit_edge.us.i24.i, %32, %16
  %58 = getelementptr inbounds i8, ptr %10, i64 8
  %59 = load i32, ptr %58, align 8
  %.not.i = icmp eq i32 %59, 0
  br i1 %.not.i, label %_ZN2cv5utils5trace7details6RegionD2Ev.exit, label %60

60:                                               ; preds = %_ZN2cv3hal12cpu_baselineL8mul_loopIhNS_12hal_baseline5v_regIhLi16EEEEEvPKT_mS8_mPS6_miiPKd.exit
  invoke void @_ZN2cv5utils5trace7details6Region7destroyEv(ptr noundef nonnull align 8 dereferenceable(12) %10)
          to label %_ZN2cv5utils5trace7details6RegionD2Ev.exit unwind label %61

61:                                               ; preds = %60
  %62 = landingpad { ptr, i32 }
          catch ptr null
  %63 = extractvalue { ptr, i32 } %62, 0
  call void @__clang_call_terminate(ptr %63) #11
  unreachable

_ZN2cv5utils5trace7details6RegionD2Ev.exit:       ; preds = %_ZN2cv3hal12cpu_baselineL8mul_loopIhNS_12hal_baseline5v_regIhLi16EEEEEvPKT_mS8_mPS6_miiPKd.exit, %60
  ret void
}